target datalayout = "e-m:e-p270:32:32-p271:32:32-p272:64:64-i64:64-i128:128-f80:128-n8:16:32:64-S128"
target triple = "x86_64-pc-linux-gnu"

%"struct.std::atomic" = type { %"struct.std::__atomic_base" }
%"struct.std::__atomic_base" = type { i32 }
%"class.icu_77::UnifiedCache" = type { %"class.icu_77::UnifiedCacheBase", ptr, i32, i32, i32, i32, i32, i64, ptr }
%"class.icu_77::UnifiedCacheBase" = type { %"class.icu_77::UObject" }
%"class.icu_77::UObject" = type { ptr }
%"class.icu_77::SharedObject" = type { %"class.icu_77::UObject", i32, %"struct.std::atomic", ptr }

@_ZTVN6icu_777UObjectE = available_externally unnamed_addr constant { [5 x ptr] } { [5 x ptr] [ptr null, ptr @_ZTIN6icu_777UObjectE, ptr @_ZN6icu_777UObjectD1Ev, ptr @_ZN6icu_777UObjectD0Ev, ptr @_ZNK6icu_777UObject17getDynamicClassIDEv] }, align 8
@_ZTVN6icu_7712SharedObjectE = available_externally unnamed_addr constant { [5 x ptr] } { [5 x ptr] [ptr null, ptr @_ZTIN6icu_7712SharedObjectE, ptr @_ZN6icu_7712SharedObjectD1Ev, ptr @_ZN6icu_7712SharedObjectD0Ev, ptr @_ZNK6icu_777UObject17getDynamicClassIDEv] }, align 8

; Function Attrs: mustprogress nounwind uwtable
define linkonce_odr noundef i32 @_ZStanSt12memory_orderSt23__memory_order_modifier(i32 noundef %0, i32 noundef %1) #3 comdat {
  %3 = alloca i32, align 4
  %4 = alloca i32, align 4
  store i32 %0, ptr %3, align 4, !tbaa !79
  store i32 %1, ptr %4, align 4, !tbaa !81
  %5 = load i32, ptr %3, align 4, !tbaa !79
  %6 = load i32, ptr %4, align 4, !tbaa !81
  %7 = and i32 %5, %6
  ret i32 %7
}

; Function Attrs: mustprogress nounwind uwtable
define linkonce_odr void @_ZNSt13__atomic_baseIiEC2Ei(ptr noundef nonnull align 4 dereferenceable(4) %0, i32 noundef %1) unnamed_addr #3 comdat align 2 {
  %3 = alloca ptr, align 8
  %4 = alloca i32, align 4
  store ptr %0, ptr %3, align 8, !tbaa !47
  store i32 %1, ptr %4, align 4, !tbaa !49
  %5 = load ptr, ptr %3, align 8
  %6 = getelementptr inbounds nuw %"struct.std::__atomic_base", ptr %5, i32 0, i32 0
  %7 = load i32, ptr %4, align 4, !tbaa !49
  store i32 %7, ptr %6, align 4, !tbaa !92
  ret void
}

; Function Attrs: alwaysinline mustprogress nounwind uwtable
define linkonce_odr void @_ZNSt13__atomic_baseIiE5storeEiSt12memory_order(ptr noundef nonnull align 4 dereferenceable(4) %0, i32 noundef %1, i32 noundef %2) #9 comdat align 2 {
  %4 = alloca ptr, align 8
  %5 = alloca i32, align 4
  %6 = alloca i32, align 4
  %7 = alloca i32, align 4
  %8 = alloca i32, align 4
  store ptr %0, ptr %4, align 8, !tbaa !47
  store i32 %1, ptr %5, align 4, !tbaa !49
  store i32 %2, ptr %6, align 4, !tbaa !79
  %9 = load ptr, ptr %4, align 8
  call void @llvm.lifetime.start.p0(i64 4, ptr %7) #12
  %10 = load i32, ptr %6, align 4, !tbaa !79
  %11 = call noundef i32 @_ZStanSt12memory_orderSt23__memory_order_modifier(i32 noundef %10, i32 noundef 65535)
  store i32 %11, ptr %7, align 4, !tbaa !79
  br label %12

12:                                               ; preds = %3
  br label %13

13:                                               ; preds = %12
  br label %14

14:                                               ; preds = %13
  br label %15

15:                                               ; preds = %14
  br label %16

16:                                               ; preds = %15
  br label %17

17:                                               ; preds = %16
  br label %18

18:                                               ; preds = %17
  br label %19

19:                                               ; preds = %18
  br label %20

20:                                               ; preds = %19
  %21 = getelementptr inbounds nuw %"struct.std::__atomic_base", ptr %9, i32 0, i32 0
  %22 = load i32, ptr %6, align 4, !tbaa !79
  %23 = load i32, ptr %5, align 4, !tbaa !49
  store i32 %23, ptr %8, align 4, !tbaa !49
  switch i32 %22, label %24 [
    i32 3, label %26
    i32 5, label %28
  ]

24:                                               ; preds = %20
  %25 = load i32, ptr %8, align 4
  store atomic i32 %25, ptr %21 monotonic, align 4
  br label %30

26:                                               ; preds = %20
  %27 = load i32, ptr %8, align 4
  store atomic i32 %27, ptr %21 release, align 4
  br label %30

28:                                               ; preds = %20
  %29 = load i32, ptr %8, align 4
  store atomic i32 %29, ptr %21 seq_cst, align 4
  br label %30

30:                                               ; preds = %28, %26, %24
  call void @llvm.lifetime.end.p0(i64 4, ptr %7) #12
  ret void
}

; Function Attrs: mustprogress nounwind uwtable
define linkonce_odr void @_ZNSt6atomicIiEC2Ei(ptr noundef nonnull align 4 dereferenceable(4) %0, i32 noundef %1) unnamed_addr #3 comdat align 2 {
  %3 = alloca ptr, align 8
  %4 = alloca i32, align 4
  store ptr %0, ptr %3, align 8, !tbaa !77
  store i32 %1, ptr %4, align 4, !tbaa !49
  %5 = load ptr, ptr %3, align 8
  %6 = load i32, ptr %4, align 4, !tbaa !49
  call void @_ZNSt13__atomic_baseIiEC2Ei(ptr noundef nonnull align 4 dereferenceable(4) %5, i32 noundef %6) #12
  ret void
}

; Function Attrs: inlinehint mustprogress nounwind uwtable
define linkonce_odr void @_ZN6icu_777UObjectC2Ev(ptr noundef nonnull align 8 dereferenceable(8) %0) unnamed_addr #6 comdat align 2 {
  %2 = alloca ptr, align 8
  store ptr %0, ptr %2, align 8, !tbaa !90
  %3 = load ptr, ptr %2, align 8
  store ptr getelementptr inbounds inrange(-16, 24) ({ [5 x ptr] }, ptr @_ZTVN6icu_777UObjectE, i32 0, i32 0, i32 2), ptr %3, align 8, !tbaa !9
  ret void
}

; Function Attrs: mustprogress nounwind uwtable
define linkonce_odr noundef i32 @_ZNSt13__atomic_baseIiEaSEi(ptr noundef nonnull align 4 dereferenceable(4) %0, i32 noundef %1) #3 comdat align 2 {
  %3 = alloca ptr, align 8
  %4 = alloca i32, align 4
  store ptr %0, ptr %3, align 8, !tbaa !47
  store i32 %1, ptr %4, align 4, !tbaa !49
  %5 = load ptr, ptr %3, align 8
  %6 = load i32, ptr %4, align 4, !tbaa !49
  call void @_ZNSt13__atomic_baseIiE5storeEiSt12memory_order(ptr noundef nonnull align 4 dereferenceable(4) %5, i32 noundef %6, i32 noundef 5) #12
  %7 = load i32, ptr %4, align 4, !tbaa !49
  ret i32 %7
}

; Function Attrs: mustprogress nounwind uwtable
define linkonce_odr void @_ZN6icu_7712SharedObjectC2Ev(ptr noundef nonnull align 8 dereferenceable(24) %0) unnamed_addr #3 comdat align 2 {
  %2 = alloca ptr, align 8
  store ptr %0, ptr %2, align 8, !tbaa !46
  %3 = load ptr, ptr %2, align 8
  call void @_ZN6icu_777UObjectC2Ev(ptr noundef nonnull align 8 dereferenceable(8) %3) #12
  store ptr getelementptr inbounds inrange(-16, 24) ({ [5 x ptr] }, ptr @_ZTVN6icu_7712SharedObjectE, i32 0, i32 0, i32 2), ptr %3, align 8, !tbaa !9
  %4 = getelementptr inbounds nuw %"class.icu_77::SharedObject", ptr %3, i32 0, i32 1
  store i32 0, ptr %4, align 8, !tbaa !41
  %5 = getelementptr inbounds nuw %"class.icu_77::SharedObject", ptr %3, i32 0, i32 2
  call void @_ZNSt6atomicIiEC2Ei(ptr noundef nonnull align 4 dereferenceable(4) %5, i32 noundef 0) #12
  %6 = getelementptr inbounds nuw %"class.icu_77::SharedObject", ptr %3, i32 0, i32 3
  store ptr null, ptr %6, align 8, !tbaa !44
  ret void
}

; Function Attrs: inlinehint mustprogress nounwind uwtable
define internal noundef signext i8 @_ZL9U_FAILURE10UErrorCode(i32 noundef %0) #6 {
  %2 = alloca i32, align 4
  store i32 %0, ptr %2, align 4, !tbaa !12
  %3 = load i32, ptr %2, align 4, !tbaa !12
  %4 = icmp sgt i32 %3, 0
  %5 = zext i1 %4 to i8
  ret i8 %5
}

; Function Attrs: mustprogress nounwind uwtable
define linkonce_odr void @_ZN6icu_7716UnifiedCacheBaseC2Ev(ptr noundef nonnull align 8 dereferenceable(8) %0) unnamed_addr #3 comdat align 2 {
  %2 = alloca ptr, align 8
  store ptr %0, ptr %2, align 8, !tbaa !45
  %3 = load ptr, ptr %2, align 8
  call void @_ZN6icu_777UObjectC2Ev(ptr noundef nonnull align 8 dereferenceable(8) %3) #12
  store ptr getelementptr inbounds inrange(-16, 32) ({ [6 x ptr] }, ptr @_ZTVN6icu_7716UnifiedCacheBaseE, i32 0, i32 0, i32 2), ptr %3, align 8, !tbaa !9
  ret void
}

; Function Attrs: mustprogress uwtable
define void @_ZN6icu_7712UnifiedCacheC2ER10UErrorCode(ptr noundef nonnull align 8 dereferenceable(56) %0, ptr noundef nonnull align 4 dereferenceable(4) %1) unnamed_addr #0 align 2 personality ptr @__gxx_personality_v0 {
  %3 = alloca ptr, align 8
  %4 = alloca ptr, align 8
  %5 = alloca ptr, align 8
  %6 = alloca i32, align 4
  %7 = alloca ptr, align 8
  %8 = alloca i1, align 1
  store ptr %0, ptr %3, align 8, !tbaa !14
  store ptr %1, ptr %4, align 8, !tbaa !11
  %9 = load ptr, ptr %3, align 8
  call void @_ZN6icu_7716UnifiedCacheBaseC2Ev(ptr noundef nonnull align 8 dereferenceable(8) %9)
  store ptr getelementptr inbounds inrange(-16, 32) ({ [6 x ptr] }, ptr @_ZTVN6icu_7712UnifiedCacheE, i32 0, i32 0, i32 2), ptr %9, align 8, !tbaa !9
  %10 = getelementptr inbounds nuw %"class.icu_77::UnifiedCache", ptr %9, i32 0, i32 1
  store ptr null, ptr %10, align 8, !tbaa !27
  %11 = getelementptr inbounds nuw %"class.icu_77::UnifiedCache", ptr %9, i32 0, i32 2
  store i32 -1, ptr %11, align 8, !tbaa !34
  %12 = getelementptr inbounds nuw %"class.icu_77::UnifiedCache", ptr %9, i32 0, i32 3
  store i32 0, ptr %12, align 4, !tbaa !35
  %13 = getelementptr inbounds nuw %"class.icu_77::UnifiedCache", ptr %9, i32 0, i32 4
  store i32 0, ptr %13, align 8, !tbaa !36
  %14 = getelementptr inbounds nuw %"class.icu_77::UnifiedCache", ptr %9, i32 0, i32 5
  store i32 1000, ptr %14, align 4, !tbaa !37
  %15 = getelementptr inbounds nuw %"class.icu_77::UnifiedCache", ptr %9, i32 0, i32 6
  store i32 100, ptr %15, align 8, !tbaa !38
  %16 = getelementptr inbounds nuw %"class.icu_77::UnifiedCache", ptr %9, i32 0, i32 7
  store i64 0, ptr %16, align 8, !tbaa !39
  %17 = getelementptr inbounds nuw %"class.icu_77::UnifiedCache", ptr %9, i32 0, i32 8
  store ptr null, ptr %17, align 8, !tbaa !40
  %18 = load ptr, ptr %4, align 8, !tbaa !11
  %19 = load i32, ptr %18, align 4, !tbaa !12
  %20 = invoke noundef signext i8 @_ZL9U_FAILURE10UErrorCode(i32 noundef %19)
          to label %21 unwind label %24

21:                                               ; preds = %2
  %22 = icmp ne i8 %20, 0
  br i1 %22, label %23, label %28

23:                                               ; preds = %21
  br label %74

24:                                               ; preds = %70, %62, %49, %2
  %25 = landingpad { ptr, i32 }
          cleanup
  %26 = extractvalue { ptr, i32 } %25, 0
  store ptr %26, ptr %5, align 8
  %27 = extractvalue { ptr, i32 } %25, 1
  store i32 %27, ptr %6, align 4
  br label %75

28:                                               ; preds = %21
  %29 = call noundef ptr @_ZN6icu_777UMemorynwEm(i64 noundef 24) #12
  %30 = icmp eq ptr %29, null
  store i1 false, ptr %8, align 1
  br i1 %30, label %33, label %31

31:                                               ; preds = %28
  store ptr %29, ptr %7, align 8
  store i1 true, ptr %8, align 1
  invoke void @_ZN6icu_7712SharedObjectC2Ev(ptr noundef nonnull align 8 dereferenceable(24) %29)
          to label %32 unwind label %41

32:                                               ; preds = %31
  br label %33

33:                                               ; preds = %32, %28
  %34 = phi ptr [ %29, %32 ], [ null, %28 ]
  %35 = getelementptr inbounds nuw %"class.icu_77::UnifiedCache", ptr %9, i32 0, i32 8
  store ptr %34, ptr %35, align 8, !tbaa !40
  %36 = getelementptr inbounds nuw %"class.icu_77::UnifiedCache", ptr %9, i32 0, i32 8
  %37 = load ptr, ptr %36, align 8, !tbaa !40
  %38 = icmp eq ptr %37, null
  br i1 %38, label %39, label %49

39:                                               ; preds = %33
  %40 = load ptr, ptr %4, align 8, !tbaa !11
  store i32 7, ptr %40, align 4, !tbaa !12
  br label %74

41:                                               ; preds = %31
  %42 = landingpad { ptr, i32 }
          cleanup
  %43 = extractvalue { ptr, i32 } %42, 0
  store ptr %43, ptr %5, align 8
  %44 = extractvalue { ptr, i32 } %42, 1
  store i32 %44, ptr %6, align 4
  %45 = load i1, ptr %8, align 1
  br i1 %45, label %46, label %48

46:                                               ; preds = %41
  %47 = load ptr, ptr %7, align 8
  call void @_ZN6icu_777UMemorydlEPv(ptr noundef %47) #12
  br label %48

48:                                               ; preds = %46, %41
  br label %75

49:                                               ; preds = %33
  %50 = getelementptr inbounds nuw %"class.icu_77::UnifiedCache", ptr %9, i32 0, i32 8
  %51 = load ptr, ptr %50, align 8, !tbaa !40
  %52 = getelementptr inbounds nuw %"class.icu_77::SharedObject", ptr %51, i32 0, i32 1
  store i32 1, ptr %52, align 8, !tbaa !41
  %53 = getelementptr inbounds nuw %"class.icu_77::UnifiedCache", ptr %9, i32 0, i32 8
  %54 = load ptr, ptr %53, align 8, !tbaa !40
  %55 = getelementptr inbounds nuw %"class.icu_77::SharedObject", ptr %54, i32 0, i32 2
  %56 = call noundef i32 @_ZNSt13__atomic_baseIiEaSEi(ptr noundef nonnull align 4 dereferenceable(4) %55, i32 noundef 1) #12
  %57 = getelementptr inbounds nuw %"class.icu_77::UnifiedCache", ptr %9, i32 0, i32 8
  %58 = load ptr, ptr %57, align 8, !tbaa !40
  %59 = getelementptr inbounds nuw %"class.icu_77::SharedObject", ptr %58, i32 0, i32 3
  store ptr %9, ptr %59, align 8, !tbaa !44
  %60 = load ptr, ptr %4, align 8, !tbaa !11
  %61 = invoke ptr @uhash_open_77(ptr noundef @_ZN6icu_7715ucache_hashKeysE8UElement, ptr noundef @_ZN6icu_7718ucache_compareKeysE8UElementS0_, ptr noundef null, ptr noundef %60)
          to label %62 unwind label %24

62:                                               ; preds = %49
  %63 = getelementptr inbounds nuw %"class.icu_77::UnifiedCache", ptr %9, i32 0, i32 1
  store ptr %61, ptr %63, align 8, !tbaa !27
  %64 = load ptr, ptr %4, align 8, !tbaa !11
  %65 = load i32, ptr %64, align 4, !tbaa !12
  %66 = invoke noundef signext i8 @_ZL9U_FAILURE10UErrorCode(i32 noundef %65)
          to label %67 unwind label %24

67:                                               ; preds = %62
  %68 = icmp ne i8 %66, 0
  br i1 %68, label %69, label %70

69:                                               ; preds = %67
  br label %74

70:                                               ; preds = %67
  %71 = getelementptr inbounds nuw %"class.icu_77::UnifiedCache", ptr %9, i32 0, i32 1
  %72 = load ptr, ptr %71, align 8, !tbaa !27
  %73 = invoke ptr @uhash_setKeyDeleter_77(ptr noundef %72, ptr noundef @_ZN6icu_7716ucache_deleteKeyEPv)
          to label %74 unwind label %24

74:                                               ; preds = %23, %39, %69, %70
  ret void

75:                                               ; preds = %48, %24
  call void @_ZN6icu_7716UnifiedCacheBaseD2Ev(ptr noundef nonnull align 8 dereferenceable(8) %9) #12
  br label %76

76:                                               ; preds = %75
  %77 = load ptr, ptr %5, align 8
  %78 = load i32, ptr %6, align 4
  %79 = insertvalue { ptr, i32 } poison, ptr %77, 0
  %80 = insertvalue { ptr, i32 } %79, i32 %78, 1
  resume { ptr, i32 } %80
}