; Function Attrs: mustprogress uwtable
define void @_ZN6icu_7712UnifiedCacheC2ER10UErrorCode(ptr noundef nonnull align 8 dereferenceable(56) initializes((0, 36), (40, 56)) %0, ptr noundef nonnull align 4 dereferenceable(4) %1) unnamed_addr #0 align 2 personality ptr @__gxx_personality_v0 {
  store ptr getelementptr inbounds nuw inrange(-16, 32) (i8, ptr @_ZTVN6icu_7712UnifiedCacheE, i64 16), ptr %0, align 8, !tbaa !3
  %3 = getelementptr inbounds nuw i8, ptr %0, i64 8
  store ptr null, ptr %3, align 8, !tbaa !21
  %4 = getelementptr inbounds nuw i8, ptr %0, i64 16
  store i32 -1, ptr %4, align 8, !tbaa !28
  %5 = getelementptr inbounds nuw i8, ptr %0, i64 20
  store i32 0, ptr %5, align 4, !tbaa !29
  %6 = getelementptr inbounds nuw i8, ptr %0, i64 24
  store i32 0, ptr %6, align 8, !tbaa !30
  %7 = getelementptr inbounds nuw i8, ptr %0, i64 28
  store i32 1000, ptr %7, align 4, !tbaa !31
  %8 = getelementptr inbounds nuw i8, ptr %0, i64 32
  store i32 100, ptr %8, align 8, !tbaa !32
  %9 = getelementptr inbounds nuw i8, ptr %0, i64 40
  %10 = getelementptr inbounds nuw i8, ptr %0, i64 48
  tail call void @llvm.memset.p0.i64(ptr noundef nonnull align 8 dereferenceable(16) %9, i8 0, i64 16, i1 false)
  %11 = load i32, ptr %1, align 4, !tbaa !6
  %12 = icmp slt i32 %11, 1
  br i1 %12, label %15, label %30

13:                                               ; preds = %28, %19
  %14 = landingpad { ptr, i32 }
          cleanup
  tail call void @_ZN6icu_7716UnifiedCacheBaseD2Ev(ptr noundef nonnull align 8 dereferenceable(8) %0) #16
  resume { ptr, i32 } %14

15:                                               ; preds = %2
  %16 = tail call noundef ptr @_ZN6icu_777UMemorynwEm(i64 noundef 24) #16
  %17 = icmp eq ptr %16, null
  br i1 %17, label %18, label %19

18:                                               ; preds = %15
  store ptr null, ptr %10, align 8, !tbaa !33
  store i32 7, ptr %1, align 4, !tbaa !6
  br label %30

19:                                               ; preds = %15
  store ptr getelementptr inbounds nuw inrange(-16, 24) (i8, ptr @_ZTVN6icu_7712SharedObjectE, i64 16), ptr %16, align 8, !tbaa !3
  %20 = getelementptr inbounds nuw i8, ptr %16, i64 8
  tail call void @llvm.memset.p0.i64(ptr noundef nonnull align 8 dereferenceable(16) %20, i8 0, i64 16, i1 false)
  store ptr %16, ptr %10, align 8, !tbaa !33
  store i32 1, ptr %20, align 8, !tbaa !34
  %21 = getelementptr inbounds nuw i8, ptr %16, i64 12
  store atomic i32 1, ptr %21 seq_cst, align 4
  %22 = load ptr, ptr %10, align 8, !tbaa !33
  %23 = getelementptr inbounds nuw i8, ptr %22, i64 16
  store ptr %0, ptr %23, align 8, !tbaa !37
  %24 = invoke ptr @uhash_open_77(ptr noundef nonnull @_ZN6icu_7715ucache_hashKeysE8UElement, ptr noundef nonnull @_ZN6icu_7718ucache_compareKeysE8UElementS0_, ptr noundef null, ptr noundef nonnull %1)
          to label %25 unwind label %13

25:                                               ; preds = %19
  store ptr %24, ptr %3, align 8, !tbaa !21
  %26 = load i32, ptr %1, align 4, !tbaa !6
  %27 = icmp slt i32 %26, 1
  br i1 %27, label %28, label %30

28:                                               ; preds = %25
  %29 = invoke ptr @uhash_setKeyDeleter_77(ptr noundef %24, ptr noundef nonnull @_ZN6icu_7716ucache_deleteKeyEPv)
          to label %30 unwind label %13

30:                                               ; preds = %25, %2, %28, %18
  ret void
}